target datalayout = "e-m:e-p270:32:32-p271:32:32-p272:64:64-i64:64-i128:128-f80:128-n8:16:32:64-S128"
target triple = "x86_64-pc-linux-gnu"

%struct.stack_st = type { i64, ptr, i64, i64, ptr }

; Function Attrs: nounwind uwtable
define hidden void @sk_zero(ptr noundef %0) #0 {
  %2 = alloca ptr, align 8
  store ptr %0, ptr %2, align 8, !tbaa !10
  %3 = load ptr, ptr %2, align 8, !tbaa !10
  %4 = icmp eq ptr %3, null
  br i1 %4, label %10, label %5

5:                                                ; preds = %1
  %6 = load ptr, ptr %2, align 8, !tbaa !10
  %7 = getelementptr inbounds nuw %struct.stack_st, ptr %6, i32 0, i32 0
  %8 = load i64, ptr %7, align 8, !tbaa !17
  %9 = icmp eq i64 %8, 0
  br i1 %9, label %10, label %11

10:                                               ; preds = %5, %1
  br label %23

11:                                               ; preds = %5
  %12 = load ptr, ptr %2, align 8, !tbaa !10
  %13 = getelementptr inbounds nuw %struct.stack_st, ptr %12, i32 0, i32 1
  %14 = load ptr, ptr %13, align 8, !tbaa !12
  %15 = load ptr, ptr %2, align 8, !tbaa !10
  %16 = getelementptr inbounds nuw %struct.stack_st, ptr %15, i32 0, i32 0
  %17 = load i64, ptr %16, align 8, !tbaa !17
  %18 = mul i64 8, %17
  call void @llvm.memset.p0.i64(ptr align 8 %14, i8 0, i64 %18, i1 false)
  %19 = load ptr, ptr %2, align 8, !tbaa !10
  %20 = getelementptr inbounds nuw %struct.stack_st, ptr %19, i32 0, i32 0
  store i64 0, ptr %20, align 8, !tbaa !17
  %21 = load ptr, ptr %2, align 8, !tbaa !10
  %22 = getelementptr inbounds nuw %struct.stack_st, ptr %21, i32 0, i32 2
  store i64 0, ptr %22, align 8, !tbaa !18
  br label %23

23:                                               ; preds = %11, %10
  ret void
}