; Function Attrs: mustprogress nofree norecurse nosync nounwind willreturn memory(write, argmem: readwrite, inaccessiblemem: none) uwtable
define hidden void @sk_zero(ptr noundef captures(address_is_null) %0) local_unnamed_addr #4 {
  %2 = icmp eq ptr %0, null
  br i1 %2, label %11, label %3

3:                                                ; preds = %1
  %4 = load i64, ptr %0, align 8, !tbaa !14
  %5 = icmp eq i64 %4, 0
  br i1 %5, label %11, label %6

6:                                                ; preds = %3
  %7 = getelementptr inbounds nuw i8, ptr %0, i64 8
  %8 = load ptr, ptr %7, align 8, !tbaa !6
  %9 = shl i64 %4, 3
  tail call void @llvm.memset.p0.i64(ptr align 8 %8, i8 0, i64 %9, i1 false)
  store i64 0, ptr %0, align 8, !tbaa !14
  %10 = getelementptr inbounds nuw i8, ptr %0, i64 16
  store i64 0, ptr %10, align 8, !tbaa !15
  br label %11

11:                                               ; preds = %1, %3, %6
  ret void
}